target datalayout = "e-m:e-p270:32:32-p271:32:32-p272:64:64-i64:64-i128:128-f80:128-n8:16:32:64-S128"
target triple = "x86_64-unknown-linux-gnu"

%"class.std::__shared_count" = type { ptr }
%"class.arrow::Status" = type { ptr }
%"union.std::aligned_storage<16, 8>::type" = type { [16 x i8] }
%"class.arrow::Result.18" = type { %"class.arrow::Status", %"class.arrow::internal::AlignedStorage.21" }
%"class.arrow::internal::AlignedStorage.21" = type { %"union.std::aligned_storage<16, 8>::type" }
%"class.arrow::Future" = type { %"class.std::shared_ptr.65" }
%"class.std::shared_ptr.65" = type { %"class.std::__shared_ptr.66" }
%"class.std::__shared_ptr.66" = type { ptr, %"class.std::__shared_count" }

; Function Attrs: mustprogress uwtable
define void @_ZN5arrow2io12BufferReader9ReadAsyncERKNS0_9IOContextEll(ptr noalias sret(%"class.arrow::Future") align 8 %agg.result, ptr noundef nonnull align 8 dereferenceable(81) %this, ptr noundef nonnull align 8 dereferenceable(40) %0, i64 noundef %position, i64 noundef %nbytes) unnamed_addr #1 align 2 personality ptr @__gxx_personality_v0 {
entry:
  %result.ptr = alloca ptr, align 8
  %this.addr = alloca ptr, align 8
  %.addr = alloca ptr, align 8
  %position.addr = alloca i64, align 8
  %nbytes.addr = alloca i64, align 8
  %agg.tmp = alloca %"class.arrow::Result.18", align 8
  %exn.slot = alloca ptr, align 8
  %ehselector.slot = alloca i32, align 4
  store ptr %agg.result, ptr %result.ptr, align 8
  store ptr %this, ptr %this.addr, align 8
  store ptr %0, ptr %.addr, align 8
  store i64 %position, ptr %position.addr, align 8
  store i64 %nbytes, ptr %nbytes.addr, align 8
  %this1 = load ptr, ptr %this.addr, align 8
  %1 = load i64, ptr %position.addr, align 8
  %2 = load i64, ptr %nbytes.addr, align 8
  call void @_ZN5arrow2io12BufferReader8DoReadAtEll(ptr sret(%"class.arrow::Result.18") align 8 %agg.tmp, ptr noundef nonnull align 8 dereferenceable(81) %this1, i64 noundef %1, i64 noundef %2)
  invoke void @_ZN5arrow6FutureISt10shared_ptrINS_6BufferEEE12MakeFinishedENS_6ResultIS3_EE(ptr sret(%"class.arrow::Future") align 8 %agg.result, ptr noundef %agg.tmp)
          to label %invoke.cont unwind label %lpad

invoke.cont:                                      ; preds = %entry
  call void @_ZN5arrow6ResultISt10shared_ptrINS_6BufferEEED2Ev(ptr noundef nonnull align 8 dereferenceable(24) %agg.tmp) #13
  ret void

lpad:                                             ; preds = %entry
  %3 = landingpad { ptr, i32 }
          cleanup
  %4 = extractvalue { ptr, i32 } %3, 0
  store ptr %4, ptr %exn.slot, align 8
  %5 = extractvalue { ptr, i32 } %3, 1
  store i32 %5, ptr %ehselector.slot, align 4
  call void @_ZN5arrow6ResultISt10shared_ptrINS_6BufferEEED2Ev(ptr noundef nonnull align 8 dereferenceable(24) %agg.tmp) #13
  br label %eh.resume

eh.resume:                                        ; preds = %lpad
  %exn = load ptr, ptr %exn.slot, align 8
  %sel = load i32, ptr %ehselector.slot, align 4
  %lpad.val = insertvalue { ptr, i32 } poison, ptr %exn, 0
  %lpad.val2 = insertvalue { ptr, i32 } %lpad.val, i32 %sel, 1
  resume { ptr, i32 } %lpad.val2
}